(lp0
S'poi'
p1
aS'salary'
p2
aS'total_payments'
p3
aS'income'
p4
aS'bonus'
p5
aS'deferred_income'
p6
aS'total_stock_value'
p7
aS'expenses'
p8
aS'exercised_stock_options'
p9
aS'long_term_incentive'
p10
aS'restricted_stock'
p11
aS'director_fees'
p12
aS'to_messages'
p13
aS'from_poi_to_this_person'
p14
aS'from_this_person_to_poi'
p15
aS'shared_receipt_with_poi'
p16
aS'fraction_from_poi'
p17
aS'fraction_to_poi'
p18
a.